; ModuleID = 'source-C-CXX/44/2944.c'
source_filename = "source-C-CXX/44/2944.c"
target datalayout = "e-m:e-p270:32:32-p271:32:32-p272:64:64-i64:64-f80:128-n8:16:32:64-S128"
target triple = "x86_64-pc-linux-gnu"

@.str = private unnamed_addr constant [6 x i8] c"%s %s\00", align 1
@.str.1 = private unnamed_addr constant [3 x i8] c"%d\00", align 1

; Function Attrs: nofree nounwind sspstrong uwtable
define dso_local i32 @main() local_unnamed_addr #0 {
  %1 = alloca [50 x i8], align 16
  %2 = alloca [50 x i8], align 16
  %3 = getelementptr inbounds [50 x i8], [50 x i8]* %1, i64 0, i64 0
  call void @llvm.lifetime.start.p0i8(i64 50, i8* nonnull %3) #4
  %4 = getelementptr inbounds [50 x i8], [50 x i8]* %2, i64 0, i64 0
  call void @llvm.lifetime.start.p0i8(i64 50, i8* nonnull %4) #4
  %5 = call i32 (i8*, ...) @__isoc99_scanf(i8* getelementptr inbounds ([6 x i8], [6 x i8]* @.str, i64 0, i64 0), i8* nonnull %3, i8* nonnull %4)
  %6 = call i64 @strlen(i8* noundef nonnull %3) #5
  %7 = trunc i64 %6 to i32
  %8 = call i64 @strlen(i8* noundef nonnull %4) #5
  %9 = trunc i64 %8 to i32
  %10 = sub i32 %9, %7
  %11 = load i8, i8* %3, align 16
  %12 = icmp slt i32 %10, 0
  br i1 %12, label %56, label %13

13:                                               ; preds = %0
  %14 = icmp sgt i32 %7, 1
  br i1 %14, label %19, label %15

15:                                               ; preds = %13
  %16 = add i32 %9, 1
  %17 = sub i32 %16, %7
  %18 = zext i32 %17 to i64
  br label %44

19:                                               ; preds = %13
  %20 = add nuw i32 %10, 1
  %21 = add i64 %8, 1
  %22 = sub i64 %21, %6
  %23 = and i64 %22, 4294967295
  %24 = and i64 %6, 4294967295
  br label %25

25:                                               ; preds = %19, %41
  %26 = phi i64 [ 0, %19 ], [ %42, %41 ]
  %27 = getelementptr inbounds [50 x i8], [50 x i8]* %2, i64 0, i64 %26
  %28 = load i8, i8* %27, align 1, !tbaa !5
  %29 = icmp eq i8 %28, %11
  br i1 %29, label %32, label %41

30:                                               ; preds = %32
  %31 = icmp eq i64 %40, %24
  br i1 %31, label %52, label %32, !llvm.loop !8

32:                                               ; preds = %25, %30
  %33 = phi i64 [ %40, %30 ], [ 1, %25 ]
  %34 = getelementptr inbounds [50 x i8], [50 x i8]* %1, i64 0, i64 %33
  %35 = load i8, i8* %34, align 1, !tbaa !5
  %36 = add nuw nsw i64 %33, %26
  %37 = getelementptr inbounds [50 x i8], [50 x i8]* %2, i64 0, i64 %36
  %38 = load i8, i8* %37, align 1, !tbaa !5
  %39 = icmp eq i8 %35, %38
  %40 = add nuw nsw i64 %33, 1
  br i1 %39, label %30, label %41

41:                                               ; preds = %32, %25
  %42 = add nuw nsw i64 %26, 1
  %43 = icmp eq i64 %42, %23
  br i1 %43, label %56, label %25, !llvm.loop !10

44:                                               ; preds = %15, %49
  %45 = phi i64 [ 0, %15 ], [ %50, %49 ]
  %46 = getelementptr inbounds [50 x i8], [50 x i8]* %2, i64 0, i64 %45
  %47 = load i8, i8* %46, align 1, !tbaa !5
  %48 = icmp eq i8 %47, %11
  br i1 %48, label %54, label %49

49:                                               ; preds = %44
  %50 = add nuw nsw i64 %45, 1
  %51 = icmp eq i64 %50, %18
  br i1 %51, label %56, label %44, !llvm.loop !10

52:                                               ; preds = %30
  %53 = trunc i64 %26 to i32
  br label %56

54:                                               ; preds = %44
  %55 = trunc i64 %45 to i32
  br label %56

56:                                               ; preds = %49, %41, %54, %52, %0
  %57 = phi i32 [ 0, %0 ], [ %53, %52 ], [ %55, %54 ], [ %20, %41 ], [ %17, %49 ]
  %58 = call i32 (i8*, ...) @printf(i8* nonnull dereferenceable(1) getelementptr inbounds ([3 x i8], [3 x i8]* @.str.1, i64 0, i64 0), i32 %57)
  call void @llvm.lifetime.end.p0i8(i64 50, i8* nonnull %4) #4
  call void @llvm.lifetime.end.p0i8(i64 50, i8* nonnull %3) #4
  ret i32 0
}

; Function Attrs: argmemonly mustprogress nofree nosync nounwind willreturn
declare void @llvm.lifetime.start.p0i8(i64 immarg, i8* nocapture) #1

; Function Attrs: nofree nounwind
declare noundef i32 @__isoc99_scanf(i8* nocapture noundef readonly, ...) local_unnamed_addr #2

; Function Attrs: argmemonly mustprogress nofree nounwind readonly willreturn
declare i64 @strlen(i8* nocapture) local_unnamed_addr #3

; Function Attrs: nofree nounwind
declare noundef i32 @printf(i8* nocapture noundef readonly, ...) local_unnamed_addr #2

; Function Attrs: argmemonly mustprogress nofree nosync nounwind willreturn
declare void @llvm.lifetime.end.p0i8(i64 immarg, i8* nocapture) #1


!llvm.module.flags = !{!0, !1, !2, !3}
!llvm.ident = !{!4}

!0 = !{i32 1, !"wchar_size", i32 4}
!1 = !{i32 7, !"PIC Level", i32 2}
!2 = !{i32 7, !"PIE Level", i32 2}
!3 = !{i32 7, !"uwtable", i32 1}
!4 = !{!"clang version 13.0.0"}
!5 = !{!6, !6, i64 0}
!6 = !{!"omnipotent char", !7, i64 0}
!7 = !{!"Simple C/C++ TBAA"}
!8 = distinct !{!8, !9}
!9 = !{!"llvm.loop.mustprogress"}
!10 = distinct !{!10, !9}
